ccopy_reg
_reconstructor
p0
(csudoku.puzzle
Puzzle
p1
c__builtin__
object
p2
Ntp3
Rp4
(dp5
S'values'
p6
(dp7
(I7
I3
tp8
I8
s(I4
I7
tp9
I4
s(I1
I3
tp10
I0
s(I4
I8
tp11
I0
s(I3
I0
tp12
I0
s(I2
I8
tp13
I0
s(I8
I0
tp14
I6
s(I7
I8
tp15
I0
s(I5
I4
tp16
I0
s(I0
I7
tp17
I6
s(I5
I6
tp18
I9
s(I2
I6
tp19
I4
s(I1
I6
tp20
I0
s(I5
I1
tp21
I1
s(I3
I7
tp22
I5
s(I0
I3
tp23
I0
s(I8
I5
tp24
I0
s(I2
I5
tp25
I0
s(I5
I8
tp26
I0
s(I4
I0
tp27
I0
s(I1
I2
tp28
I0
s(I7
I4
tp29
I9
s(I6
I4
tp30
I7
s(I3
I3
tp31
I0
s(I2
I0
tp32
I0
s(I8
I1
tp33
I2
s(I7
I6
tp34
I0
s(I4
I4
tp35
I0
s(I6
I3
tp36
I0
s(I1
I5
tp37
I8
s(I8
I8
tp38
I0
s(I7
I2
tp39
I0
s(I3
I6
tp40
I0
s(I2
I2
tp41
I0
s(I7
I7
tp42
I2
s(I5
I7
tp43
I8
s(I5
I3
tp44
I0
s(I4
I1
tp45
I8
s(I1
I1
tp46
I4
s(I2
I7
tp47
I0
s(I3
I2
tp48
I9
s(I0
I0
tp49
I0
s(I6
I6
tp50
I0
s(I5
I0
tp51
I3
s(I7
I1
tp52
I3
s(I4
I5
tp53
I9
s(I0
I4
tp54
I0
s(I5
I5
tp55
I5
s(I1
I4
tp56
I2
s(I6
I0
tp57
I0
s(I7
I5
tp58
I0
s(I2
I3
tp59
I0
s(I2
I1
tp60
I0
s(I8
I7
tp61
I0
s(I6
I8
tp62
I0
s(I4
I2
tp63
I0
s(I1
I0
tp64
I0
s(I0
I8
tp65
I8
s(I6
I5
tp66
I0
s(I3
I5
tp67
I0
s(I0
I1
tp68
I0
s(I8
I3
tp69
I5
s(I7
I0
tp70
I1
s(I4
I6
tp71
I0
s(I6
I7
tp72
I0
s(I8
I6
tp73
I0
s(I5
I2
tp74
I0
s(I6
I1
tp75
I0
s(I3
I1
tp76
I0
s(I8
I2
tp77
I0
s(I2
I4
tp78
I5
s(I3
I8
tp79
I1
s(I0
I6
tp80
I0
s(I1
I8
tp81
I5
s(I6
I2
tp82
I4
s(I4
I3
tp83
I0
s(I1
I7
tp84
I7
s(I0
I5
tp85
I1
s(I3
I4
tp86
I8
s(I0
I2
tp87
I0
s(I8
I4
tp88
I0
ssb.